Certificate:
    Data:
        Version: 3 (0x2)
        Serial Number:
            11:23:1c:60:07:9a:ba:b8:49:4d:12:49:56:78:f0:2b
        Signature Algorithm: sha256WithRSAEncryption
        Issuer: DC = de, DC = uni-leipzig, DC = medizin, CN = UKLRootCA-2016
        Validity
            Not Before: Jan 20 09:41:40 2016 GMT
            Not After : Jan 20 09:51:39 2036 GMT
        Subject: DC = de, DC = uni-leipzig, DC = medizin, CN = UKLRootCA-2016
        Subject Public Key Info:
            Public Key Algorithm: rsaEncryption
                RSA Public-Key: (2048 bit)
                Modulus:
                    00:c4:26:81:80:e8:84:42:2a:d5:66:14:a4:b5:8b:
                    72:02:f6:a8:8f:e5:95:fc:e7:7b:03:d1:6e:2c:e6:
                    98:da:9c:bf:74:6f:31:88:46:a2:64:f2:e3:23:7a:
                    42:2e:f5:9b:20:54:2a:68:eb:b6:b8:96:8b:41:7b:
                    9d:d3:4a:fb:c3:16:8a:03:9b:3f:9e:2b:7c:b5:44:
                    c9:73:0b:1c:79:11:c1:62:f3:12:f6:a4:32:04:34:
                    01:e4:23:d1:d8:5f:34:bd:3f:a4:e2:da:aa:b7:eb:
                    65:5c:30:08:82:4e:17:a0:99:f0:a5:6a:85:d4:5c:
                    85:cd:db:3b:44:35:8d:f0:1d:dd:4c:ba:4a:ba:e9:
                    2c:62:26:22:89:be:f0:53:3a:47:ab:ec:a9:b2:be:
                    11:3c:47:6c:0d:07:2f:69:0f:ab:f0:ee:52:b4:31:
                    3f:11:57:04:5f:48:dc:f0:50:99:c7:6f:ea:55:7b:
                    78:cf:a3:99:71:a3:e4:f6:14:53:ef:61:68:2c:69:
                    1f:e3:8e:41:81:3b:ab:e8:5f:cc:f4:da:c4:e3:ee:
                    dc:42:cd:c9:d0:0c:7e:08:a0:b6:19:1f:68:3a:b5:
                    64:61:65:84:da:29:6f:58:1b:2e:5f:9d:58:16:73:
                    fc:0c:2d:45:01:6c:9e:76:4c:9c:5c:dc:4c:c1:6c:
                    f2:35
                Exponent: 65537 (0x10001)
        X509v3 extensions:
            1.3.6.1.4.1.311.20.2: 
                ...C.A
            X509v3 Key Usage: 
                Digital Signature, Certificate Sign, CRL Sign
            X509v3 Basic Constraints: critical
                CA:TRUE
            X509v3 Subject Key Identifier: 
                85:2C:82:1D:EB:8A:78:0C:63:D5:27:AE:D9:EF:38:5F:2F:F2:FB:2D
            1.3.6.1.4.1.311.21.1: 
                ...
    Signature Algorithm: sha256WithRSAEncryption
         89:89:ab:b0:fb:ce:a2:c6:25:72:37:d5:af:6c:65:e9:cc:44:
         23:88:6a:b6:54:4a:7e:74:e8:37:54:b4:6a:10:3e:77:9b:63:
         7c:9f:89:f0:4e:3d:ab:4a:6d:35:04:eb:06:1c:9a:1f:91:5a:
         dc:0e:ac:fd:62:7b:e2:78:ae:ec:55:1f:ca:35:1b:b7:95:23:
         cf:07:b2:17:43:4d:e8:d1:a3:7d:e1:99:50:43:c5:f8:b5:50:
         49:4e:85:00:4a:8c:fd:b2:e4:60:e0:9c:4b:7c:ba:8e:eb:89:
         0b:8c:1e:79:58:28:fa:72:6b:45:64:f2:91:e7:6d:4f:42:86:
         1b:87:00:89:ed:51:dd:2e:f3:d0:dd:25:5d:12:c5:38:62:58:
         eb:be:0d:cf:63:39:6f:1d:19:f0:96:fc:8b:72:93:fe:49:e6:
         4b:93:a4:01:cd:ea:4d:32:df:de:2f:83:7b:ca:eb:75:42:39:
         f0:1d:50:8d:af:3f:db:5d:89:8f:d8:fd:82:48:de:1c:7d:f0:
         75:73:4f:54:84:c6:ba:c7:36:2e:a2:87:58:c9:cb:40:94:e9:
         0f:9b:9e:cc:e1:a1:48:4e:67:0f:f8:df:0f:80:a6:f5:4c:fe:
         50:f7:47:52:0f:01:18:46:64:cd:94:64:3c:d6:0e:e8:b3:45:
         24:bb:ff:66
-----BEGIN CERTIFICATE-----
MIIDtjCCAp6gAwIBAgIQESMcYAeaurhJTRJJVnjwKzANBgkqhkiG9w0BAQsFADBj
MRIwEAYKCZImiZPyLGQBGRYCZGUxGzAZBgoJkiaJk/IsZAEZFgt1bmktbGVpcHpp
ZzEXMBUGCgmSJomT8ixkARkWB21lZGl6aW4xFzAVBgNVBAMTDlVLTFJvb3RDQS0y
MDE2MB4XDTE2MDEyMDA5NDE0MFoXDTM2MDEyMDA5NTEzOVowYzESMBAGCgmSJomT
8ixkARkWAmRlMRswGQYKCZImiZPyLGQBGRYLdW5pLWxlaXB6aWcxFzAVBgoJkiaJ
k/IsZAEZFgdtZWRpemluMRcwFQYDVQQDEw5VS0xSb290Q0EtMjAxNjCCASIwDQYJ
KoZIhvcNAQEBBQADggEPADCCAQoCggEBAMQmgYDohEIq1WYUpLWLcgL2qI/llfzn
ewPRbizmmNqcv3RvMYhGomTy4yN6Qi71myBUKmjrtriWi0F7ndNK+8MWigObP54r
fLVEyXMLHHkRwWLzEvakMgQ0AeQj0dhfNL0/pOLaqrfrZVwwCIJOF6CZ8KVqhdRc
hc3bO0Q1jfAd3Uy6SrrpLGImIom+8FM6R6vsqbK+ETxHbA0HL2kPq/DuUrQxPxFX
BF9I3PBQmcdv6lV7eM+jmXGj5PYUU+9haCxpH+OOQYE7q+hfzPTaxOPu3ELNydAM
fgigthkfaDq1ZGFlhNopb1gbLl+dWBZz/AwtRQFsnnZMnFzcTMFs8jUCAwEAAaNm
MGQwEwYJKwYBBAGCNxQCBAYeBABDAEEwCwYDVR0PBAQDAgGGMA8GA1UdEwEB/wQF
MAMBAf8wHQYDVR0OBBYEFIUsgh3ringMY9UnrtnvOF8v8vstMBAGCSsGAQQBgjcV
AQQDAgEAMA0GCSqGSIb3DQEBCwUAA4IBAQCJiauw+86ixiVyN9WvbGXpzEQjiGq2
VEp+dOg3VLRqED53m2N8n4nwTj2rSm01BOsGHJofkVrcDqz9YnvieK7sVR/KNRu3
lSPPB7IXQ03o0aN94ZlQQ8X4tVBJToUASoz9suRg4JxLfLqO64kLjB55WCj6cmtF
ZPKR521PQoYbhwCJ7VHdLvPQ3SVdEsU4Yljrvg3PYzlvHRnwlvyLcpP+SeZLk6QB
zepNMt/eL4N7yut1QjnwHVCNrz/bXYmP2P2CSN4cffB1c09UhMa6xzYuoodYyctA
lOkPm57M4aFITmcP+N8PgKb1TP5Q90dSDwEYRmTNlGQ81g7os0Uku/9m
-----END CERTIFICATE-----
